target datalayout = "e-m:e-p270:32:32-p271:32:32-p272:64:64-i64:64-i128:128-f80:128-n8:16:32:64-S128"
target triple = "x86_64-pc-linux-gnu"

%"class.llvm::SmallVectorBase" = type { ptr, i32, i32 }
%"class.llvm::SmallVectorImpl.348" = type { %"class.llvm::SmallVectorTemplateBase.349" }
%"class.llvm::SmallVectorTemplateBase.349" = type { %"class.llvm::SmallVectorTemplateCommon.350" }
%"class.llvm::SmallVectorTemplateCommon.350" = type { %"class.llvm::SmallVectorBase" }
%"class.clang::AttributePool" = type { ptr, %"class.llvm::SmallVector.352" }
%"class.llvm::SmallVector.352" = type { %"class.llvm::SmallVectorImpl.348", %"struct.llvm::SmallVectorStorage.353" }
%"struct.llvm::SmallVectorStorage.353" = type { [48 x i8] }

; Function Attrs: mustprogress nounwind uwtable
define linkonce_odr hidden noundef ptr @_ZN4llvm25SmallVectorTemplateCommonIPN5clang10ParsedAttrEvE3endEv(ptr noundef nonnull align 8 dereferenceable(16) %0) #0 comdat align 2 {
  %2 = alloca ptr, align 8
  store ptr %0, ptr %2, align 8
  %3 = load ptr, ptr %2, align 8
  %4 = call noundef ptr @_ZN4llvm25SmallVectorTemplateCommonIPN5clang10ParsedAttrEvE5beginEv(ptr noundef nonnull align 8 dereferenceable(16) %3)
  %5 = call noundef i64 @_ZNK4llvm15SmallVectorBaseIjE4sizeEv(ptr noundef nonnull align 8 dereferenceable(16) %3)
  %6 = getelementptr inbounds ptr, ptr %4, i64 %5
  ret ptr %6
}

; Function Attrs: mustprogress nounwind uwtable
define linkonce_odr hidden noundef ptr @_ZN4llvm25SmallVectorTemplateCommonIPN5clang10ParsedAttrEvE5beginEv(ptr noundef nonnull align 8 dereferenceable(16) %0) #0 comdat align 2 {
  %2 = alloca ptr, align 8
  store ptr %0, ptr %2, align 8
  %3 = load ptr, ptr %2, align 8
  %4 = getelementptr inbounds nuw %"class.llvm::SmallVectorBase", ptr %3, i32 0, i32 0
  %5 = load ptr, ptr %4, align 8
  ret ptr %5
}

; Function Attrs: mustprogress nounwind uwtable
define dso_local void @_ZN5clang16AttributeFactory11reclaimPoolERNS_13AttributePoolE(ptr noundef nonnull align 8 dereferenceable(1312) %0, ptr noundef nonnull align 8 dereferenceable(72) %1) #0 align 2 {
  %3 = alloca ptr, align 8
  %4 = alloca ptr, align 8
  %5 = alloca ptr, align 8
  %6 = alloca ptr, align 8
  %7 = alloca ptr, align 8
  %8 = alloca ptr, align 8
  store ptr %0, ptr %3, align 8
  store ptr %1, ptr %4, align 8
  %9 = load ptr, ptr %3, align 8
  %10 = load ptr, ptr %4, align 8
  %11 = getelementptr inbounds nuw %"class.clang::AttributePool", ptr %10, i32 0, i32 1
  store ptr %11, ptr %5, align 8
  %12 = load ptr, ptr %5, align 8
  %13 = call noundef ptr @_ZN4llvm25SmallVectorTemplateCommonIPN5clang10ParsedAttrEvE5beginEv(ptr noundef nonnull align 8 dereferenceable(16) %12)
  store ptr %13, ptr %6, align 8
  %14 = load ptr, ptr %5, align 8
  %15 = call noundef ptr @_ZN4llvm25SmallVectorTemplateCommonIPN5clang10ParsedAttrEvE3endEv(ptr noundef nonnull align 8 dereferenceable(16) %14)
  store ptr %15, ptr %7, align 8
  br label %16

16:                                               ; preds = %24, %2
  %17 = load ptr, ptr %6, align 8
  %18 = load ptr, ptr %7, align 8
  %19 = icmp ne ptr %17, %18
  br i1 %19, label %20, label %27

20:                                               ; preds = %16
  %21 = load ptr, ptr %6, align 8
  %22 = load ptr, ptr %21, align 8
  store ptr %22, ptr %8, align 8
  %23 = load ptr, ptr %8, align 8
  call void @_ZN5clang16AttributeFactory10deallocateEPNS_10ParsedAttrE(ptr noundef nonnull align 8 dereferenceable(1312) %9, ptr noundef %23)
  br label %24

24:                                               ; preds = %20
  %25 = load ptr, ptr %6, align 8
  %26 = getelementptr inbounds ptr, ptr %25, i32 1
  store ptr %26, ptr %6, align 8
  br label %16

27:                                               ; preds = %16
  ret void
}