; Function Attrs: mustprogress nounwind uwtable
define dso_local void @_ZN5clang16AttributeFactory11reclaimPoolERNS_13AttributePoolE(ptr noundef nonnull align 8 dereferenceable(1312) %0, ptr noundef nonnull align 8 dereferenceable(72) %1) local_unnamed_addr #0 align 2 {
  %3 = getelementptr inbounds nuw i8, ptr %1, i64 8
  %4 = load ptr, ptr %3, align 8
  %5 = tail call noundef i64 @_ZNK4llvm15SmallVectorBaseIjE4sizeEv(ptr noundef nonnull align 8 dereferenceable(16) %3) #18
  %6 = getelementptr inbounds ptr, ptr %4, i64 %5
  %.not9 = icmp eq i64 %5, 0
  br i1 %.not9, label %._crit_edge, label %.lr.ph

.lr.ph:                                           ; preds = %2, %.lr.ph
  %.010 = phi ptr [ %8, %.lr.ph ], [ %4, %2 ]
  %7 = load ptr, ptr %.010, align 8
  tail call void @_ZN5clang16AttributeFactory10deallocateEPNS_10ParsedAttrE(ptr noundef nonnull align 8 dereferenceable(1312) %0, ptr noundef %7)
  %8 = getelementptr inbounds i8, ptr %.010, i64 8
  %.not = icmp eq ptr %8, %6
  br i1 %.not, label %._crit_edge, label %.lr.ph

._crit_edge:                                      ; preds = %.lr.ph, %2
  ret void
}